; Function Attrs: mustprogress uwtable
define hidden void @_ZNK19OpenColorIO_v2_5dev17GradingToneOpData8validateEv(ptr noundef nonnull readonly align 8 captures(none) dereferenceable(196) %0) unnamed_addr #3 align 2 {
  %2 = getelementptr inbounds nuw i8, ptr %0, i64 176
  %3 = load ptr, ptr %2, align 8, !tbaa !49
  %4 = load ptr, ptr %3, align 8, !tbaa !3
  %5 = getelementptr inbounds nuw i8, ptr %4, i64 24
  %6 = load ptr, ptr %5, align 8
  %7 = tail call noundef nonnull align 8 dereferenceable(248) ptr %6(ptr noundef nonnull align 8 dereferenceable(1208) %3)
  tail call void @_ZNK19OpenColorIO_v2_5dev11GradingTone8validateEv(ptr noundef nonnull align 8 dereferenceable(248) %7)
  ret void
}